target datalayout = "e-m:e-p270:32:32-p271:32:32-p272:64:64-i64:64-i128:128-f80:128-n8:16:32:64-S128"
target triple = "x86_64-pc-linux-gnu"

%struct.Node = type { i32 }
%union.ListCell = type { ptr }
%struct.Expr = type { i32 }
%struct.Const = type { %struct.Expr, i32, i32, i32, i32, i64, i8, i8, i32 }
%struct.BoolExpr = type { %struct.Expr, i32, ptr, i32 }

; Function Attrs: inlinehint nounwind uwtable
define internal zeroext i1 @DatumGetBool(i64 noundef %0) #2 {
  %2 = alloca i64, align 8
  store i64 %0, ptr %2, align 8
  %3 = load i64, ptr %2, align 8
  %4 = icmp ne i64 %3, 0
  ret i1 %4
}

; Function Attrs: inlinehint nounwind uwtable
define internal zeroext i1 @is_andclause(ptr noundef %0) #2 {
  %2 = alloca ptr, align 8
  store ptr %0, ptr %2, align 8
  %3 = load ptr, ptr %2, align 8
  %4 = icmp ne ptr %3, null
  br i1 %4, label %5, label %15

5:                                                ; preds = %1
  %6 = load ptr, ptr %2, align 8
  %7 = getelementptr inbounds nuw %struct.Node, ptr %6, i32 0, i32 0
  %8 = load i32, ptr %7, align 4
  %9 = icmp eq i32 %8, 21
  br i1 %9, label %10, label %15

10:                                               ; preds = %5
  %11 = load ptr, ptr %2, align 8
  %12 = getelementptr inbounds nuw %struct.BoolExpr, ptr %11, i32 0, i32 1
  %13 = load i32, ptr %12, align 4
  %14 = icmp eq i32 %13, 0
  br label %15

15:                                               ; preds = %10, %5, %1
  %16 = phi i1 [ false, %5 ], [ false, %1 ], [ %14, %10 ]
  ret i1 %16
}

; Function Attrs: nounwind uwtable
define dso_local ptr @make_ands_implicit(ptr noundef %0) #0 {
  %2 = alloca ptr, align 8
  %3 = alloca ptr, align 8
  %4 = alloca %union.ListCell, align 8
  store ptr %0, ptr %3, align 8
  %5 = load ptr, ptr %3, align 8
  %6 = icmp eq ptr %5, null
  br i1 %6, label %7, label %8

7:                                                ; preds = %1
  store ptr null, ptr %2, align 8
  br label %36

8:                                                ; preds = %1
  %9 = load ptr, ptr %3, align 8
  %10 = call zeroext i1 @is_andclause(ptr noundef %9)
  br i1 %10, label %11, label %15

11:                                               ; preds = %8
  %12 = load ptr, ptr %3, align 8
  %13 = getelementptr inbounds nuw %struct.BoolExpr, ptr %12, i32 0, i32 2
  %14 = load ptr, ptr %13, align 8
  store ptr %14, ptr %2, align 8
  br label %36

15:                                               ; preds = %8
  %16 = load ptr, ptr %3, align 8
  %17 = getelementptr inbounds nuw %struct.Node, ptr %16, i32 0, i32 0
  %18 = load i32, ptr %17, align 4
  %19 = icmp eq i32 %18, 7
  br i1 %19, label %20, label %31

20:                                               ; preds = %15
  %21 = load ptr, ptr %3, align 8
  %22 = getelementptr inbounds nuw %struct.Const, ptr %21, i32 0, i32 6
  %23 = load i8, ptr %22, align 8, !range !4, !noundef !5
  %24 = trunc i8 %23 to i1
  br i1 %24, label %31, label %25

25:                                               ; preds = %20
  %26 = load ptr, ptr %3, align 8
  %27 = getelementptr inbounds nuw %struct.Const, ptr %26, i32 0, i32 5
  %28 = load i64, ptr %27, align 8
  %29 = call zeroext i1 @DatumGetBool(i64 noundef %28)
  br i1 %29, label %30, label %31

30:                                               ; preds = %25
  store ptr null, ptr %2, align 8
  br label %36

31:                                               ; preds = %25, %20, %15
  %32 = load ptr, ptr %3, align 8
  store ptr %32, ptr %4, align 8
  %33 = getelementptr inbounds nuw %union.ListCell, ptr %4, i32 0, i32 0
  %34 = load ptr, ptr %33, align 8
  %35 = call ptr @list_make1_impl(i32 noundef 1, ptr %34)
  store ptr %35, ptr %2, align 8
  br label %36

36:                                               ; preds = %31, %30, %11, %7
  %37 = load ptr, ptr %2, align 8
  ret ptr %37
}