; Function Attrs: nounwind uwtable
define dso_local ptr @make_ands_implicit(ptr noundef %0) local_unnamed_addr #0 {
  %2 = icmp eq ptr %0, null
  br i1 %2, label %19, label %3

3:                                                ; preds = %1
  %4 = load i32, ptr %0, align 4
  switch i32 %4, label %.thread [
    i32 21, label %is_andclause.exit
    i32 7, label %11
  ]

is_andclause.exit:                                ; preds = %3
  %5 = getelementptr inbounds nuw i8, ptr %0, i64 4
  %6 = load i32, ptr %5, align 4
  %7 = icmp eq i32 %6, 0
  br i1 %7, label %8, label %.thread

8:                                                ; preds = %is_andclause.exit
  %9 = getelementptr inbounds nuw i8, ptr %0, i64 8
  %10 = load ptr, ptr %9, align 8
  br label %19

11:                                               ; preds = %3
  %12 = getelementptr inbounds nuw i8, ptr %0, i64 32
  %13 = load i8, ptr %12, align 8, !range !4, !noundef !5
  %14 = trunc nuw i8 %13 to i1
  br i1 %14, label %.thread, label %15

15:                                               ; preds = %11
  %16 = getelementptr inbounds nuw i8, ptr %0, i64 24
  %17 = load i64, ptr %16, align 8
  %.not = icmp eq i64 %17, 0
  br i1 %.not, label %.thread, label %19

.thread:                                          ; preds = %3, %is_andclause.exit, %15, %11
  %18 = tail call ptr @list_make1_impl(i32 noundef 1, ptr nonnull %0) #7
  br label %19

19:                                               ; preds = %15, %1, %.thread, %8
  %.0 = phi ptr [ %10, %8 ], [ %18, %.thread ], [ null, %1 ], [ null, %15 ]
  ret ptr %.0
}